; ModuleID = '9/1391.c'
source_filename = "9/1391.c"
target datalayout = "e-m:e-p270:32:32-p271:32:32-p272:64:64-i64:64-f80:128-n8:16:32:64-S128"
target triple = "x86_64-pc-linux-gnu"

%struct.patience = type { i32, [10 x i8], i32 }

@.str = private unnamed_addr constant [3 x i8] c"%d\00", align 1
@.str.1 = private unnamed_addr constant [5 x i8] c"%s%d\00", align 1
@pa = common dso_local global [100 x %struct.patience] zeroinitializer, align 16
@.str.2 = private unnamed_addr constant [4 x i8] c"%s\0A\00", align 1

; Function Attrs: noinline nounwind uwtable
define dso_local i32 @main() #0 {
  %1 = alloca i32, align 4
  %2 = alloca i32, align 4
  %3 = alloca i32, align 4
  %4 = alloca i32, align 4
  %5 = alloca i32, align 4
  %6 = alloca i32, align 4
  %7 = alloca i8*, align 8
  %8 = alloca i64, align 8
  %9 = alloca i64, align 8
  %10 = alloca i64, align 8
  store i32 0, i32* %1, align 4
  store i32 60, i32* %5, align 4
  store i32 0, i32* %6, align 4
  %11 = call i32 (i8*, ...) @__isoc99_scanf(i8* getelementptr inbounds ([3 x i8], [3 x i8]* @.str, i64 0, i64 0), i32* %2)
  %12 = load i32, i32* %2, align 4
  %13 = zext i32 %12 to i64
  %14 = call i8* @llvm.stacksave()
  store i8* %14, i8** %7, align 8
  %15 = alloca i32, i64 %13, align 16
  store i64 %13, i64* %8, align 8
  %16 = load i32, i32* %2, align 4
  %17 = zext i32 %16 to i64
  %18 = alloca i32, i64 %17, align 16
  store i64 %17, i64* %9, align 8
  %19 = load i32, i32* %2, align 4
  %20 = zext i32 %19 to i64
  %21 = alloca i32, i64 %20, align 16
  store i64 %20, i64* %10, align 8
  store i32 0, i32* %3, align 4
  br label %22

22:                                               ; preds = %36, %0
  %23 = load i32, i32* %3, align 4
  %24 = load i32, i32* %2, align 4
  %25 = icmp slt i32 %23, %24
  br i1 %25, label %26, label %39

26:                                               ; preds = %22
  %27 = load i32, i32* %3, align 4
  %28 = sext i32 %27 to i64
  %29 = getelementptr inbounds [100 x %struct.patience], [100 x %struct.patience]* @pa, i64 0, i64 %28
  %30 = getelementptr inbounds %struct.patience, %struct.patience* %29, i32 0, i32 1
  %31 = load i32, i32* %3, align 4
  %32 = sext i32 %31 to i64
  %33 = getelementptr inbounds [100 x %struct.patience], [100 x %struct.patience]* @pa, i64 0, i64 %32
  %34 = getelementptr inbounds %struct.patience, %struct.patience* %33, i32 0, i32 2
  %35 = call i32 (i8*, ...) @__isoc99_scanf(i8* getelementptr inbounds ([5 x i8], [5 x i8]* @.str.1, i64 0, i64 0), [10 x i8]* %30, i32* %34)
  br label %36

36:                                               ; preds = %26
  %37 = load i32, i32* %3, align 4
  %38 = add nsw i32 %37, 1
  store i32 %38, i32* %3, align 4
  br label %22

39:                                               ; preds = %22
  store i32 0, i32* %3, align 4
  br label %40

40:                                               ; preds = %55, %39
  %41 = load i32, i32* %3, align 4
  %42 = load i32, i32* %2, align 4
  %43 = icmp slt i32 %41, %42
  br i1 %43, label %44, label %58

44:                                               ; preds = %40
  %45 = load i32, i32* %3, align 4
  %46 = sext i32 %45 to i64
  %47 = getelementptr inbounds [100 x %struct.patience], [100 x %struct.patience]* @pa, i64 0, i64 %46
  %48 = getelementptr inbounds %struct.patience, %struct.patience* %47, i32 0, i32 2
  %49 = load i32, i32* %48, align 4
  %50 = icmp sge i32 %49, 60
  br i1 %50, label %51, label %54

51:                                               ; preds = %44
  %52 = load i32, i32* %6, align 4
  %53 = add nsw i32 %52, 1
  store i32 %53, i32* %6, align 4
  br label %54

54:                                               ; preds = %51, %44
  br label %55

55:                                               ; preds = %54
  %56 = load i32, i32* %3, align 4
  %57 = add nsw i32 %56, 1
  store i32 %57, i32* %3, align 4
  br label %40

58:                                               ; preds = %40
  br label %59

59:                                               ; preds = %113, %58
  store i32 0, i32* %3, align 4
  br label %60

60:                                               ; preds = %79, %59
  %61 = load i32, i32* %3, align 4
  %62 = load i32, i32* %2, align 4
  %63 = icmp slt i32 %61, %62
  br i1 %63, label %64, label %82

64:                                               ; preds = %60
  %65 = load i32, i32* %3, align 4
  %66 = sext i32 %65 to i64
  %67 = getelementptr inbounds [100 x %struct.patience], [100 x %struct.patience]* @pa, i64 0, i64 %66
  %68 = getelementptr inbounds %struct.patience, %struct.patience* %67, i32 0, i32 2
  %69 = load i32, i32* %68, align 4
  %70 = load i32, i32* %5, align 4
  %71 = icmp sge i32 %69, %70
  br i1 %71, label %72, label %78

72:                                               ; preds = %64
  %73 = load i32, i32* %3, align 4
  %74 = sext i32 %73 to i64
  %75 = getelementptr inbounds [100 x %struct.patience], [100 x %struct.patience]* @pa, i64 0, i64 %74
  %76 = getelementptr inbounds %struct.patience, %struct.patience* %75, i32 0, i32 2
  %77 = load i32, i32* %76, align 4
  store i32 %77, i32* %5, align 4
  br label %78

78:                                               ; preds = %72, %64
  br label %79

79:                                               ; preds = %78
  %80 = load i32, i32* %3, align 4
  %81 = add nsw i32 %80, 1
  store i32 %81, i32* %3, align 4
  br label %60

82:                                               ; preds = %60
  store i32 0, i32* %3, align 4
  br label %83

83:                                               ; preds = %107, %82
  %84 = load i32, i32* %3, align 4
  %85 = load i32, i32* %2, align 4
  %86 = icmp slt i32 %84, %85
  br i1 %86, label %87, label %110

87:                                               ; preds = %83
  %88 = load i32, i32* %3, align 4
  %89 = sext i32 %88 to i64
  %90 = getelementptr inbounds [100 x %struct.patience], [100 x %struct.patience]* @pa, i64 0, i64 %89
  %91 = getelementptr inbounds %struct.patience, %struct.patience* %90, i32 0, i32 2
  %92 = load i32, i32* %91, align 4
  %93 = load i32, i32* %5, align 4
  %94 = icmp eq i32 %92, %93
  br i1 %94, label %95, label %106

95:                                               ; preds = %87
  %96 = load i32, i32* %3, align 4
  %97 = sext i32 %96 to i64
  %98 = getelementptr inbounds [100 x %struct.patience], [100 x %struct.patience]* @pa, i64 0, i64 %97
  %99 = getelementptr inbounds %struct.patience, %struct.patience* %98, i32 0, i32 1
  %100 = getelementptr inbounds [10 x i8], [10 x i8]* %99, i64 0, i64 0
  %101 = call i32 (i8*, ...) @printf(i8* getelementptr inbounds ([4 x i8], [4 x i8]* @.str.2, i64 0, i64 0), i8* %100)
  %102 = load i32, i32* %3, align 4
  %103 = sext i32 %102 to i64
  %104 = getelementptr inbounds [100 x %struct.patience], [100 x %struct.patience]* @pa, i64 0, i64 %103
  %105 = getelementptr inbounds %struct.patience, %struct.patience* %104, i32 0, i32 2
  store i32 0, i32* %105, align 4
  br label %106

106:                                              ; preds = %95, %87
  br label %107

107:                                              ; preds = %106
  %108 = load i32, i32* %3, align 4
  %109 = add nsw i32 %108, 1
  store i32 %109, i32* %3, align 4
  br label %83

110:                                              ; preds = %83
  store i32 60, i32* %5, align 4
  %111 = load i32, i32* %6, align 4
  %112 = add nsw i32 %111, -1
  store i32 %112, i32* %6, align 4
  br label %113

113:                                              ; preds = %110
  %114 = load i32, i32* %6, align 4
  %115 = icmp sgt i32 %114, 0
  br i1 %115, label %59, label %116

116:                                              ; preds = %113
  store i32 0, i32* %3, align 4
  br label %117

117:                                              ; preds = %143, %116
  %118 = load i32, i32* %3, align 4
  %119 = load i32, i32* %2, align 4
  %120 = icmp slt i32 %118, %119
  br i1 %120, label %121, label %146

121:                                              ; preds = %117
  %122 = load i32, i32* %3, align 4
  %123 = sext i32 %122 to i64
  %124 = getelementptr inbounds [100 x %struct.patience], [100 x %struct.patience]* @pa, i64 0, i64 %123
  %125 = getelementptr inbounds %struct.patience, %struct.patience* %124, i32 0, i32 2
  %126 = load i32, i32* %125, align 4
  %127 = icmp slt i32 %126, 60
  br i1 %127, label %128, label %142

128:                                              ; preds = %121
  %129 = load i32, i32* %3, align 4
  %130 = sext i32 %129 to i64
  %131 = getelementptr inbounds [100 x %struct.patience], [100 x %struct.patience]* @pa, i64 0, i64 %130
  %132 = getelementptr inbounds %struct.patience, %struct.patience* %131, i32 0, i32 2
  %133 = load i32, i32* %132, align 4
  %134 = icmp sgt i32 %133, 0
  br i1 %134, label %135, label %142

135:                                              ; preds = %128
  %136 = load i32, i32* %3, align 4
  %137 = sext i32 %136 to i64
  %138 = getelementptr inbounds [100 x %struct.patience], [100 x %struct.patience]* @pa, i64 0, i64 %137
  %139 = getelementptr inbounds %struct.patience, %struct.patience* %138, i32 0, i32 1
  %140 = getelementptr inbounds [10 x i8], [10 x i8]* %139, i64 0, i64 0
  %141 = call i32 (i8*, ...) @printf(i8* getelementptr inbounds ([4 x i8], [4 x i8]* @.str.2, i64 0, i64 0), i8* %140)
  br label %142

142:                                              ; preds = %135, %128, %121
  br label %143

143:                                              ; preds = %142
  %144 = load i32, i32* %3, align 4
  %145 = add nsw i32 %144, 1
  store i32 %145, i32* %3, align 4
  br label %117

146:                                              ; preds = %117
  store i32 0, i32* %1, align 4
  %147 = load i8*, i8** %7, align 8
  call void @llvm.stackrestore(i8* %147)
  %148 = load i32, i32* %1, align 4
  ret i32 %148
}

declare dso_local i32 @__isoc99_scanf(i8*, ...) #1

; Function Attrs: nounwind
declare i8* @llvm.stacksave() #2

declare dso_local i32 @printf(i8*, ...) #1

; Function Attrs: nounwind
declare void @llvm.stackrestore(i8*) #2


!llvm.module.flags = !{!0}
!llvm.ident = !{!1}

!0 = !{i32 1, !"wchar_size", i32 4}
!1 = !{!"clang version 10.0.0-4ubuntu1 "}
